; Function Attrs: nofree norecurse nosync nounwind memory(argmem: read) uwtable
define ptr @av_dv_frame_profile(ptr noundef readonly captures(address_is_null, ret: address, provenance) %0, ptr noundef readonly captures(none) %1, i32 noundef %2) local_unnamed_addr #2 {
  %4 = icmp ult i32 %2, 480
  br i1 %4, label %ff_dv_frame_profile.exit, label %5

5:                                                ; preds = %3
  %6 = getelementptr inbounds nuw i8, ptr %1, i64 3
  %7 = load i8, ptr %6, align 1, !tbaa !18
  %8 = lshr i8 %7, 7
  %9 = zext nneg i8 %8 to i32
  %10 = getelementptr inbounds nuw i8, ptr %1, i64 451
  %11 = load i8, ptr %10, align 1, !tbaa !18
  %12 = zext i8 %11 to i32
  %13 = and i32 %12, 31
  %14 = icmp slt i8 %7, 0
  %15 = icmp eq i32 %13, 0
  %or.cond.i = select i1 %14, i1 %15, i1 false
  br i1 %or.cond.i, label %16, label %20

16:                                               ; preds = %5
  %17 = getelementptr inbounds nuw i8, ptr %1, i64 4
  %18 = load i8, ptr %17, align 1, !tbaa !18
  %19 = and i8 %18, 7
  %.not.i = icmp eq i8 %19, 0
  br i1 %.not.i, label %.preheader.i.preheader, label %ff_dv_frame_profile.exit

20:                                               ; preds = %5
  %21 = icmp sgt i8 %7, -1
  %22 = and i32 %12, 63
  %23 = icmp eq i32 %22, 32
  %or.cond7.i = select i1 %21, i1 %23, i1 false
  %24 = icmp eq i32 %2, 144000
  %or.cond9.i = and i1 %24, %or.cond7.i
  br i1 %or.cond9.i, label %ff_dv_frame_profile.exit, label %.preheader.i.preheader

.preheader.i.preheader:                           ; preds = %20, %16
  br label %.preheader.i

.preheader.i:                                     ; preds = %.preheader.i.preheader, %32
  %indvars.iv.i = phi i64 [ %indvars.iv.next.i, %32 ], [ 0, %.preheader.i.preheader ]
  %25 = getelementptr inbounds nuw [10 x %struct.AVDVProfile], ptr @dv_profiles, i64 0, i64 %indvars.iv.i
  %26 = load i32, ptr %25, align 8, !tbaa !38
  %27 = icmp eq i32 %26, %9
  br i1 %27, label %28, label %32

28:                                               ; preds = %.preheader.i
  %29 = getelementptr inbounds nuw i8, ptr %25, i64 4
  %30 = load i32, ptr %29, align 4, !tbaa !39
  %31 = icmp eq i32 %13, %30
  br i1 %31, label %ff_dv_frame_profile.exit, label %32

32:                                               ; preds = %28, %.preheader.i
  %indvars.iv.next.i = add nuw nsw i64 %indvars.iv.i, 1
  %exitcond.not.i = icmp eq i64 %indvars.iv.next.i, 10
  br i1 %exitcond.not.i, label %33, label %.preheader.i, !llvm.loop !40

33:                                               ; preds = %32
  %.not44.i = icmp eq ptr %0, null
  br i1 %.not44.i, label %38, label %34

34:                                               ; preds = %33
  %35 = getelementptr inbounds nuw i8, ptr %0, i64 8
  %36 = load i32, ptr %35, align 8, !tbaa !41
  %37 = icmp eq i32 %2, %36
  br i1 %37, label %ff_dv_frame_profile.exit, label %38

38:                                               ; preds = %34, %33
  %39 = and i8 %7, 127
  %40 = icmp eq i8 %39, 63
  %41 = icmp eq i8 %11, -1
  %or.cond46.i = select i1 %40, i1 %41, i1 false
  br i1 %or.cond46.i, label %42, label %ff_dv_frame_profile.exit

42:                                               ; preds = %38
  %43 = zext nneg i8 %8 to i64
  %44 = getelementptr inbounds nuw [10 x %struct.AVDVProfile], ptr @dv_profiles, i64 0, i64 %43
  br label %ff_dv_frame_profile.exit

ff_dv_frame_profile.exit:                         ; preds = %28, %3, %16, %20, %34, %38, %42
  %.0.i = phi ptr [ %44, %42 ], [ null, %3 ], [ getelementptr inbounds nuw (i8, ptr @dv_profiles, i64 240), %16 ], [ getelementptr inbounds nuw (i8, ptr @dv_profiles, i64 120), %20 ], [ %0, %34 ], [ null, %38 ], [ %25, %28 ]
  ret ptr %.0.i
}